target datalayout = "e-m:e-p270:32:32-p271:32:32-p272:64:64-i64:64-i128:128-f80:128-n8:16:32:64-S128"
target triple = "x86_64-pc-linux-gnu"

%"struct.nanobind::detail::nb_internals" = type { ptr, ptr, ptr, ptr, ptr, ptr, %"struct.nanobind::detail::nb_maybe_atomic", ptr, i8, %"struct.nanobind::detail::nb_maybe_atomic", [1 x %"struct.nanobind::detail::nb_shard"], %"class.tsl::robin_map.0", %"class.tsl::robin_map.10", %"class.tsl::robin_map", %"struct.nanobind::detail::nb_translator_seq", i8, i8, ptr, i64 }
%"struct.nanobind::detail::nb_maybe_atomic" = type { ptr }
%"struct.nanobind::detail::nb_shard" = type { %"class.tsl::robin_map", %"class.tsl::robin_map" }
%"class.tsl::robin_map.0" = type { %"class.tsl::detail_robin_hash::robin_hash.1" }
%"class.tsl::detail_robin_hash::robin_hash.1" = type <{ %"class.tsl::rh::power_of_two_growth_policy", %"class.std::vector.4", ptr, i64, i64, i64, float, float, i8, i8, [6 x i8] }>
%"class.tsl::rh::power_of_two_growth_policy" = type { i64 }
%"class.std::vector.4" = type { %"struct.std::_Vector_base.5" }
%"struct.std::_Vector_base.5" = type { %"struct.std::_Vector_base<tsl::detail_robin_hash::bucket_entry<std::pair<const std::type_info *, nanobind::detail::type_data *>, true>, std::allocator<tsl::detail_robin_hash::bucket_entry<std::pair<const std::type_info *, nanobind::detail::type_data *>, true>>>::_Vector_impl" }
%"struct.std::_Vector_base<tsl::detail_robin_hash::bucket_entry<std::pair<const std::type_info *, nanobind::detail::type_data *>, true>, std::allocator<tsl::detail_robin_hash::bucket_entry<std::pair<const std::type_info *, nanobind::detail::type_data *>, true>>>::_Vector_impl" = type { %"struct.std::_Vector_base<tsl::detail_robin_hash::bucket_entry<std::pair<const std::type_info *, nanobind::detail::type_data *>, true>, std::allocator<tsl::detail_robin_hash::bucket_entry<std::pair<const std::type_info *, nanobind::detail::type_data *>, true>>>::_Vector_impl_data" }
%"struct.std::_Vector_base<tsl::detail_robin_hash::bucket_entry<std::pair<const std::type_info *, nanobind::detail::type_data *>, true>, std::allocator<tsl::detail_robin_hash::bucket_entry<std::pair<const std::type_info *, nanobind::detail::type_data *>, true>>>::_Vector_impl_data" = type { ptr, ptr, ptr }
%"class.tsl::robin_map.10" = type { %"class.tsl::detail_robin_hash::robin_hash.11" }
%"class.tsl::detail_robin_hash::robin_hash.11" = type <{ %"class.tsl::rh::power_of_two_growth_policy", %"class.std::vector.4", ptr, i64, i64, i64, float, float, i8, i8, [6 x i8] }>
%"class.tsl::robin_map" = type { %"class.tsl::detail_robin_hash::robin_hash" }
%"class.tsl::detail_robin_hash::robin_hash" = type <{ %"class.tsl::rh::power_of_two_growth_policy", %"class.std::vector", ptr, i64, i64, i64, float, float, i8, i8, [6 x i8] }>
%"class.std::vector" = type { %"struct.std::_Vector_base" }
%"struct.std::_Vector_base" = type { %"struct.std::_Vector_base<tsl::detail_robin_hash::bucket_entry<std::pair<void *, void *>, true>, std::allocator<tsl::detail_robin_hash::bucket_entry<std::pair<void *, void *>, true>>>::_Vector_impl" }
%"struct.std::_Vector_base<tsl::detail_robin_hash::bucket_entry<std::pair<void *, void *>, true>, std::allocator<tsl::detail_robin_hash::bucket_entry<std::pair<void *, void *>, true>>>::_Vector_impl" = type { %"struct.std::_Vector_base<tsl::detail_robin_hash::bucket_entry<std::pair<void *, void *>, true>, std::allocator<tsl::detail_robin_hash::bucket_entry<std::pair<void *, void *>, true>>>::_Vector_impl_data" }
%"struct.std::_Vector_base<tsl::detail_robin_hash::bucket_entry<std::pair<void *, void *>, true>, std::allocator<tsl::detail_robin_hash::bucket_entry<std::pair<void *, void *>, true>>>::_Vector_impl_data" = type { ptr, ptr, ptr }
%"struct.nanobind::detail::nb_translator_seq" = type { ptr, ptr, ptr }
%"class.std::__exception_ptr::exception_ptr" = type { ptr }

@_ZN8nanobind6detail9internalsE = external hidden global ptr, align 8
@PyExc_SystemError = external global ptr, align 8
@.str.21 = private unnamed_addr constant [77 x i8] c"nanobind::detail::nb_func_error_except(): exception could not be translated!\00", align 1

; Function Attrs: inlinehint mustprogress nounwind uwtable
define linkonce_odr void @_ZNSt15__exception_ptr13exception_ptr4swapERS0_(ptr noundef nonnull align 8 dereferenceable(8) %0, ptr noundef nonnull align 8 dereferenceable(8) %1) #12 comdat align 2 {
  %3 = alloca ptr, align 8
  %4 = alloca ptr, align 8
  %5 = alloca ptr, align 8
  store ptr %0, ptr %3, align 8
  store ptr %1, ptr %4, align 8
  %6 = load ptr, ptr %3, align 8
  call void @llvm.lifetime.start.p0(i64 8, ptr %5) #22
  %7 = getelementptr inbounds nuw %"class.std::__exception_ptr::exception_ptr", ptr %6, i32 0, i32 0
  %8 = load ptr, ptr %7, align 8
  store ptr %8, ptr %5, align 8
  %9 = load ptr, ptr %4, align 8
  %10 = getelementptr inbounds nuw %"class.std::__exception_ptr::exception_ptr", ptr %9, i32 0, i32 0
  %11 = load ptr, ptr %10, align 8
  %12 = getelementptr inbounds nuw %"class.std::__exception_ptr::exception_ptr", ptr %6, i32 0, i32 0
  store ptr %11, ptr %12, align 8
  %13 = load ptr, ptr %5, align 8
  %14 = load ptr, ptr %4, align 8
  %15 = getelementptr inbounds nuw %"class.std::__exception_ptr::exception_ptr", ptr %14, i32 0, i32 0
  store ptr %13, ptr %15, align 8
  call void @llvm.lifetime.end.p0(i64 8, ptr %5) #22
  ret void
}

; Function Attrs: mustprogress nounwind uwtable
define linkonce_odr void @_ZNSt15__exception_ptr13exception_ptrC2EOS0_(ptr noundef nonnull align 8 dereferenceable(8) %0, ptr noundef nonnull align 8 dereferenceable(8) %1) unnamed_addr #8 comdat align 2 {
  %3 = alloca ptr, align 8
  %4 = alloca ptr, align 8
  store ptr %0, ptr %3, align 8
  store ptr %1, ptr %4, align 8
  %5 = load ptr, ptr %3, align 8
  %6 = getelementptr inbounds nuw %"class.std::__exception_ptr::exception_ptr", ptr %5, i32 0, i32 0
  %7 = load ptr, ptr %4, align 8
  %8 = getelementptr inbounds nuw %"class.std::__exception_ptr::exception_ptr", ptr %7, i32 0, i32 0
  %9 = load ptr, ptr %8, align 8
  store ptr %9, ptr %6, align 8
  %10 = load ptr, ptr %4, align 8
  %11 = getelementptr inbounds nuw %"class.std::__exception_ptr::exception_ptr", ptr %10, i32 0, i32 0
  store ptr null, ptr %11, align 8
  ret void
}

; Function Attrs: inlinehint mustprogress nounwind uwtable
define linkonce_odr void @_ZNSt15__exception_ptr13exception_ptrD2Ev(ptr noundef nonnull align 8 dereferenceable(8) %0) unnamed_addr #12 comdat align 2 {
  %2 = alloca ptr, align 8
  store ptr %0, ptr %2, align 8
  %3 = load ptr, ptr %2, align 8
  %4 = getelementptr inbounds nuw %"class.std::__exception_ptr::exception_ptr", ptr %3, i32 0, i32 0
  %5 = load ptr, ptr %4, align 8
  %6 = icmp ne ptr %5, null
  br i1 %6, label %7, label %8

7:                                                ; preds = %1
  call void @_ZNSt15__exception_ptr13exception_ptr10_M_releaseEv(ptr noundef nonnull align 8 dereferenceable(8) %3) #22
  br label %8

8:                                                ; preds = %7, %1
  ret void
}

; Function Attrs: mustprogress nounwind uwtable
define linkonce_odr noundef nonnull align 8 dereferenceable(8) ptr @_ZNSt15__exception_ptr13exception_ptraSEOS0_(ptr noundef nonnull align 8 dereferenceable(8) %0, ptr noundef nonnull align 8 dereferenceable(8) %1) #8 comdat align 2 {
  %3 = alloca ptr, align 8
  %4 = alloca ptr, align 8
  %5 = alloca %"class.std::__exception_ptr::exception_ptr", align 8
  store ptr %0, ptr %3, align 8
  store ptr %1, ptr %4, align 8
  %6 = load ptr, ptr %3, align 8
  call void @llvm.lifetime.start.p0(i64 8, ptr %5) #22
  %7 = load ptr, ptr %4, align 8
  call void @_ZNSt15__exception_ptr13exception_ptrC2EOS0_(ptr noundef nonnull align 8 dereferenceable(8) %5, ptr noundef nonnull align 8 dereferenceable(8) %7) #22
  call void @_ZNSt15__exception_ptr13exception_ptr4swapERS0_(ptr noundef nonnull align 8 dereferenceable(8) %5, ptr noundef nonnull align 8 dereferenceable(8) %6) #22
  call void @_ZNSt15__exception_ptr13exception_ptrD2Ev(ptr noundef nonnull align 8 dereferenceable(8) %5) #22
  call void @llvm.lifetime.end.p0(i64 8, ptr %5) #22
  ret ptr %6
}

; Function Attrs: mustprogress noinline nounwind uwtable
define internal void @_ZN8nanobind6detailL29nb_func_convert_cpp_exceptionEv() #16 personality ptr @__gxx_personality_v0 {
  %1 = alloca %"class.std::__exception_ptr::exception_ptr", align 8
  %2 = alloca ptr, align 8
  %3 = alloca i32, align 4
  %4 = alloca ptr, align 8
  %5 = alloca i32, align 4
  %6 = alloca %"class.std::__exception_ptr::exception_ptr", align 8
  call void @llvm.lifetime.start.p0(i64 8, ptr %1) #22
  call void @_ZSt17current_exceptionv(ptr dead_on_unwind writable sret(%"class.std::__exception_ptr::exception_ptr") align 8 %1) #22
  call void @llvm.lifetime.start.p0(i64 8, ptr %2) #22
  %7 = load ptr, ptr @_ZN8nanobind6detail9internalsE, align 8
  %8 = getelementptr inbounds nuw %"struct.nanobind::detail::nb_internals", ptr %7, i32 0, i32 14
  store ptr %8, ptr %2, align 8
  br label %9

9:                                                ; preds = %31, %0
  %10 = load ptr, ptr %2, align 8
  %11 = icmp ne ptr %10, null
  br i1 %11, label %13, label %12

12:                                               ; preds = %9
  store i32 2, ptr %3, align 4
  br label %35

13:                                               ; preds = %9
  %14 = load ptr, ptr %2, align 8
  %15 = getelementptr inbounds nuw %"struct.nanobind::detail::nb_translator_seq", ptr %14, i32 0, i32 0
  %16 = load ptr, ptr %15, align 8
  %17 = load ptr, ptr %2, align 8
  %18 = getelementptr inbounds nuw %"struct.nanobind::detail::nb_translator_seq", ptr %17, i32 0, i32 1
  %19 = load ptr, ptr %18, align 8
  invoke void %16(ptr noundef nonnull align 8 dereferenceable(8) %1, ptr noundef %19)
          to label %20 unwind label %21

20:                                               ; preds = %13
  store i32 1, ptr %3, align 4
  br label %35

21:                                               ; preds = %13
  %22 = landingpad { ptr, i32 }
          catch ptr null
  %23 = extractvalue { ptr, i32 } %22, 0
  store ptr %23, ptr %4, align 8
  %24 = extractvalue { ptr, i32 } %22, 1
  store i32 %24, ptr %5, align 4
  br label %25

25:                                               ; preds = %21
  %26 = load ptr, ptr %4, align 8
  %27 = call ptr @__cxa_begin_catch(ptr %26) #22
  call void @llvm.lifetime.start.p0(i64 8, ptr %6) #22
  call void @_ZSt17current_exceptionv(ptr dead_on_unwind writable sret(%"class.std::__exception_ptr::exception_ptr") align 8 %6) #22
  %28 = call noundef nonnull align 8 dereferenceable(8) ptr @_ZNSt15__exception_ptr13exception_ptraSEOS0_(ptr noundef nonnull align 8 dereferenceable(8) %1, ptr noundef nonnull align 8 dereferenceable(8) %6) #22
  call void @_ZNSt15__exception_ptr13exception_ptrD2Ev(ptr noundef nonnull align 8 dereferenceable(8) %6) #22
  call void @llvm.lifetime.end.p0(i64 8, ptr %6) #22
  invoke void @__cxa_end_catch()
          to label %29 unwind label %43

29:                                               ; preds = %25
  br label %30

30:                                               ; preds = %29
  br label %31

31:                                               ; preds = %30
  %32 = load ptr, ptr %2, align 8
  %33 = getelementptr inbounds nuw %"struct.nanobind::detail::nb_translator_seq", ptr %32, i32 0, i32 2
  %34 = load ptr, ptr %33, align 8
  store ptr %34, ptr %2, align 8
  br label %9, !llvm.loop !43

35:                                               ; preds = %20, %12
  call void @llvm.lifetime.end.p0(i64 8, ptr %2) #22
  %36 = load i32, ptr %3, align 4
  switch i32 %36, label %40 [
    i32 2, label %37
  ]

37:                                               ; preds = %35
  %38 = load ptr, ptr @PyExc_SystemError, align 8
  invoke void @PyErr_SetString(ptr noundef %38, ptr noundef @.str.21)
          to label %39 unwind label %43

39:                                               ; preds = %37
  store i32 0, ptr %3, align 4
  br label %40

40:                                               ; preds = %39, %35
  call void @_ZNSt15__exception_ptr13exception_ptrD2Ev(ptr noundef nonnull align 8 dereferenceable(8) %1) #22
  call void @llvm.lifetime.end.p0(i64 8, ptr %1) #22
  %41 = load i32, ptr %3, align 4
  switch i32 %41, label %46 [
    i32 0, label %42
    i32 1, label %42
  ]

42:                                               ; preds = %40, %40
  ret void

43:                                               ; preds = %37, %25
  %44 = landingpad { ptr, i32 }
          catch ptr null
  %45 = extractvalue { ptr, i32 } %44, 0
  call void @__clang_call_terminate(ptr %45) #24
  unreachable

46:                                               ; preds = %40
  unreachable
}