; Function Attrs: mustprogress noinline nounwind uwtable
define internal fastcc void @_ZN8nanobind6detailL29nb_func_convert_cpp_exceptionEv() unnamed_addr #15 personality ptr @__gxx_personality_v0 {
  %1 = alloca %"class.std::__exception_ptr::exception_ptr", align 8
  %2 = alloca %"class.std::__exception_ptr::exception_ptr", align 8
  %3 = alloca %"class.std::__exception_ptr::exception_ptr", align 8
  call void @llvm.lifetime.start.p0(i64 8, ptr nonnull %2) #25
  call void @_ZSt17current_exceptionv(ptr dead_on_unwind nonnull writable sret(%"class.std::__exception_ptr::exception_ptr") align 8 %2) #25
  %4 = load ptr, ptr @_ZN8nanobind6detail9internalsE, align 8
  %5 = getelementptr inbounds nuw i8, ptr %4, i64 480
  br label %6

6:                                                ; preds = %0, %17
  %.010 = phi ptr [ %5, %0 ], [ %19, %17 ]
  %7 = load ptr, ptr %.010, align 8
  %8 = getelementptr inbounds nuw i8, ptr %.010, i64 8
  %9 = load ptr, ptr %8, align 8
  invoke void %7(ptr noundef nonnull align 8 dereferenceable(8) %2, ptr noundef %9)
          to label %.loopexit unwind label %10

10:                                               ; preds = %6
  %11 = landingpad { ptr, i32 }
          catch ptr null
  %12 = extractvalue { ptr, i32 } %11, 0
  %13 = call ptr @__cxa_begin_catch(ptr %12) #25
  call void @llvm.lifetime.start.p0(i64 8, ptr nonnull %3) #25
  call void @_ZSt17current_exceptionv(ptr dead_on_unwind nonnull writable sret(%"class.std::__exception_ptr::exception_ptr") align 8 %3) #25
  call void @llvm.lifetime.start.p0(i64 8, ptr nonnull %1) #25
  %14 = load ptr, ptr %3, align 8
  store ptr null, ptr %3, align 8
  %15 = load ptr, ptr %2, align 8
  store ptr %15, ptr %1, align 8
  store ptr %14, ptr %2, align 8
  %.not.i.i = icmp eq ptr %15, null
  br i1 %.not.i.i, label %_ZNSt15__exception_ptr13exception_ptraSEOS0_.exit.thread, label %_ZNSt15__exception_ptr13exception_ptraSEOS0_.exit

_ZNSt15__exception_ptr13exception_ptraSEOS0_.exit.thread: ; preds = %10
  call void @llvm.lifetime.end.p0(i64 8, ptr nonnull %1) #25
  br label %_ZNSt15__exception_ptr13exception_ptrD2Ev.exit

_ZNSt15__exception_ptr13exception_ptraSEOS0_.exit: ; preds = %10
  call void @_ZNSt15__exception_ptr13exception_ptr10_M_releaseEv(ptr noundef nonnull align 8 dereferenceable(8) %1) #25
  %.pr = load ptr, ptr %3, align 8
  call void @llvm.lifetime.end.p0(i64 8, ptr nonnull %1) #25
  %.not.i = icmp eq ptr %.pr, null
  br i1 %.not.i, label %_ZNSt15__exception_ptr13exception_ptrD2Ev.exit, label %16

16:                                               ; preds = %_ZNSt15__exception_ptr13exception_ptraSEOS0_.exit
  call void @_ZNSt15__exception_ptr13exception_ptr10_M_releaseEv(ptr noundef nonnull align 8 dereferenceable(8) %3) #25
  br label %_ZNSt15__exception_ptr13exception_ptrD2Ev.exit

_ZNSt15__exception_ptr13exception_ptrD2Ev.exit:   ; preds = %_ZNSt15__exception_ptr13exception_ptraSEOS0_.exit.thread, %_ZNSt15__exception_ptr13exception_ptraSEOS0_.exit, %16
  call void @llvm.lifetime.end.p0(i64 8, ptr nonnull %3) #25
  invoke void @__cxa_end_catch()
          to label %17 unwind label %.loopexit9

17:                                               ; preds = %_ZNSt15__exception_ptr13exception_ptrD2Ev.exit
  %18 = getelementptr inbounds nuw i8, ptr %.010, i64 16
  %19 = load ptr, ptr %18, align 8
  %.not = icmp eq ptr %19, null
  br i1 %.not, label %.critedge, label %6, !llvm.loop !59

.critedge:                                        ; preds = %17
  %20 = load ptr, ptr @PyExc_SystemError, align 8
  invoke void @PyErr_SetString(ptr noundef %20, ptr noundef nonnull @.str.21)
          to label %.loopexit unwind label %.loopexit.split-lp

.loopexit:                                        ; preds = %6, %.critedge
  %21 = load ptr, ptr %2, align 8
  %.not.i6 = icmp eq ptr %21, null
  br i1 %.not.i6, label %_ZNSt15__exception_ptr13exception_ptrD2Ev.exit7, label %22

22:                                               ; preds = %.loopexit
  call void @_ZNSt15__exception_ptr13exception_ptr10_M_releaseEv(ptr noundef nonnull align 8 dereferenceable(8) %2) #25
  br label %_ZNSt15__exception_ptr13exception_ptrD2Ev.exit7

_ZNSt15__exception_ptr13exception_ptrD2Ev.exit7:  ; preds = %.loopexit, %22
  call void @llvm.lifetime.end.p0(i64 8, ptr nonnull %2) #25
  ret void

.loopexit9:                                       ; preds = %_ZNSt15__exception_ptr13exception_ptrD2Ev.exit
  %lpad.loopexit = landingpad { ptr, i32 }
          catch ptr null
  br label %23

.loopexit.split-lp:                               ; preds = %.critedge
  %lpad.loopexit.split-lp = landingpad { ptr, i32 }
          catch ptr null
  br label %23

23:                                               ; preds = %.loopexit.split-lp, %.loopexit9
  %lpad.phi = phi { ptr, i32 } [ %lpad.loopexit, %.loopexit9 ], [ %lpad.loopexit.split-lp, %.loopexit.split-lp ]
  %24 = extractvalue { ptr, i32 } %lpad.phi, 0
  call void @__clang_call_terminate(ptr %24) #26
  unreachable
}